; Function Attrs: nounwind uwtable
define ptr @l_Lean_Compiler_LCNF_allFVarM_go___rarg___lambda__1(ptr noundef %0, ptr noundef %1) local_unnamed_addr #0 {
  %3 = ptrtoint ptr %1 to i64
  %4 = and i64 %3, 1
  %.not.i51 = icmp eq i64 %4, 0
  br i1 %.not.i51, label %8, label %5

5:                                                ; preds = %2
  %6 = lshr i64 %3, 1
  %7 = trunc i64 %6 to i32
  br label %lean_obj_tag.exit

8:                                                ; preds = %2
  %9 = getelementptr i8, ptr %1, i64 4
  %.val.i = load i32, ptr %9, align 4
  %10 = lshr i32 %.val.i, 24
  br label %lean_obj_tag.exit

lean_obj_tag.exit:                                ; preds = %5, %8
  %.0.i = phi i32 [ %7, %5 ], [ %10, %8 ]
  %11 = icmp eq i32 %.0.i, 0
  br i1 %11, label %12, label %50

12:                                               ; preds = %lean_obj_tag.exit
  %13 = getelementptr inbounds nuw i8, ptr %0, i64 8
  %14 = load ptr, ptr %13, align 8, !tbaa !4
  %15 = ptrtoint ptr %14 to i64
  %16 = and i64 %15, 1
  %.not74 = icmp eq i64 %16, 0
  br i1 %.not74, label %17, label %lean_inc.exit35

17:                                               ; preds = %12
  %.val.i52 = load i32, ptr %14, align 4, !tbaa !8
  %18 = icmp sgt i32 %.val.i52, 0
  br i1 %18, label %19, label %21, !prof !13

19:                                               ; preds = %17
  %20 = add nuw i32 %.val.i52, 1
  store i32 %20, ptr %14, align 4, !tbaa !8
  br label %lean_inc.exit35

21:                                               ; preds = %17
  %.not.i53 = icmp eq i32 %.val.i52, 0
  br i1 %.not.i53, label %lean_inc.exit35, label %22

22:                                               ; preds = %21
  tail call void @lean_inc_ref_cold(ptr noundef nonnull %14) #4
  br label %lean_inc.exit35

lean_inc.exit35:                                  ; preds = %22, %21, %19, %12
  %23 = ptrtoint ptr %0 to i64
  %24 = and i64 %23, 1
  %.not75 = icmp eq i64 %24, 0
  br i1 %.not75, label %25, label %lean_dec.exit40

25:                                               ; preds = %lean_inc.exit35
  %26 = load i32, ptr %0, align 4, !tbaa !8
  %27 = icmp sgt i32 %26, 1
  br i1 %27, label %28, label %30, !prof !13

28:                                               ; preds = %25
  %29 = add nsw i32 %26, -1
  store i32 %29, ptr %0, align 4, !tbaa !8
  br label %lean_dec.exit40

30:                                               ; preds = %25
  %.not.i = icmp eq i32 %26, 0
  br i1 %.not.i, label %lean_dec.exit40, label %31

31:                                               ; preds = %30
  tail call void @lean_dec_ref_cold(ptr noundef nonnull %0) #4
  br label %lean_dec.exit40

lean_dec.exit40:                                  ; preds = %31, %30, %28, %lean_inc.exit35
  %32 = getelementptr inbounds nuw i8, ptr %14, i64 16
  %33 = load ptr, ptr %32, align 8, !tbaa !4
  %34 = ptrtoint ptr %33 to i64
  %35 = and i64 %34, 1
  %.not76 = icmp eq i64 %35, 0
  br i1 %.not76, label %36, label %lean_inc.exit34

36:                                               ; preds = %lean_dec.exit40
  %.val.i54 = load i32, ptr %33, align 4, !tbaa !8
  %37 = icmp sgt i32 %.val.i54, 0
  br i1 %37, label %38, label %40, !prof !13

38:                                               ; preds = %36
  %39 = add nuw i32 %.val.i54, 1
  store i32 %39, ptr %33, align 4, !tbaa !8
  br label %lean_inc.exit34

40:                                               ; preds = %36
  %.not.i55 = icmp eq i32 %.val.i54, 0
  br i1 %.not.i55, label %lean_inc.exit34, label %41

41:                                               ; preds = %40
  tail call void @lean_inc_ref_cold(ptr noundef nonnull %33) #4
  br label %lean_inc.exit34

lean_inc.exit34:                                  ; preds = %41, %40, %38, %lean_dec.exit40
  br i1 %.not74, label %42, label %lean_dec.exit39

42:                                               ; preds = %lean_inc.exit34
  %43 = load i32, ptr %14, align 4, !tbaa !8
  %44 = icmp sgt i32 %43, 1
  br i1 %44, label %45, label %47, !prof !13

45:                                               ; preds = %42
  %46 = add nsw i32 %43, -1
  store i32 %46, ptr %14, align 4, !tbaa !8
  br label %lean_dec.exit39

47:                                               ; preds = %42
  %.not.i41 = icmp eq i32 %43, 0
  br i1 %.not.i41, label %lean_dec.exit39, label %48

48:                                               ; preds = %47
  tail call void @lean_dec_ref_cold(ptr noundef nonnull %14) #4
  br label %lean_dec.exit39

lean_dec.exit39:                                  ; preds = %48, %47, %45, %lean_inc.exit34
  %49 = tail call ptr @lean_apply_2(ptr noundef %33, ptr noundef nonnull inttoptr (i64 1 to ptr), ptr noundef nonnull inttoptr (i64 1 to ptr)) #4
  br label %129

50:                                               ; preds = %lean_obj_tag.exit
  %51 = getelementptr inbounds nuw i8, ptr %1, i64 8
  %52 = load ptr, ptr %51, align 8, !tbaa !4
  %53 = ptrtoint ptr %52 to i64
  %54 = and i64 %53, 510
  %55 = icmp eq i64 %54, 0
  %56 = getelementptr inbounds nuw i8, ptr %0, i64 8
  %57 = load ptr, ptr %56, align 8, !tbaa !4
  %58 = ptrtoint ptr %57 to i64
  %59 = and i64 %58, 1
  %.not71 = icmp eq i64 %59, 0
  br i1 %55, label %60, label %94

60:                                               ; preds = %50
  br i1 %.not71, label %61, label %lean_inc.exit33

61:                                               ; preds = %60
  %.val.i57 = load i32, ptr %57, align 4, !tbaa !8
  %62 = icmp sgt i32 %.val.i57, 0
  br i1 %62, label %63, label %65, !prof !13

63:                                               ; preds = %61
  %64 = add nuw i32 %.val.i57, 1
  store i32 %64, ptr %57, align 4, !tbaa !8
  br label %lean_inc.exit33

65:                                               ; preds = %61
  %.not.i58 = icmp eq i32 %.val.i57, 0
  br i1 %.not.i58, label %lean_inc.exit33, label %66

66:                                               ; preds = %65
  tail call void @lean_inc_ref_cold(ptr noundef nonnull %57) #4
  br label %lean_inc.exit33

lean_inc.exit33:                                  ; preds = %66, %65, %63, %60
  %67 = ptrtoint ptr %0 to i64
  %68 = and i64 %67, 1
  %.not72 = icmp eq i64 %68, 0
  br i1 %.not72, label %69, label %lean_dec.exit38

69:                                               ; preds = %lean_inc.exit33
  %70 = load i32, ptr %0, align 4, !tbaa !8
  %71 = icmp sgt i32 %70, 1
  br i1 %71, label %72, label %74, !prof !13

72:                                               ; preds = %69
  %73 = add nsw i32 %70, -1
  store i32 %73, ptr %0, align 4, !tbaa !8
  br label %lean_dec.exit38

74:                                               ; preds = %69
  %.not.i43 = icmp eq i32 %70, 0
  br i1 %.not.i43, label %lean_dec.exit38, label %75

75:                                               ; preds = %74
  tail call void @lean_dec_ref_cold(ptr noundef nonnull %0) #4
  br label %lean_dec.exit38

lean_dec.exit38:                                  ; preds = %75, %74, %72, %lean_inc.exit33
  %76 = getelementptr inbounds nuw i8, ptr %57, i64 16
  %77 = load ptr, ptr %76, align 8, !tbaa !4
  %78 = ptrtoint ptr %77 to i64
  %79 = and i64 %78, 1
  %.not73 = icmp eq i64 %79, 0
  br i1 %.not73, label %80, label %lean_inc.exit32

80:                                               ; preds = %lean_dec.exit38
  %.val.i60 = load i32, ptr %77, align 4, !tbaa !8
  %81 = icmp sgt i32 %.val.i60, 0
  br i1 %81, label %82, label %84, !prof !13

82:                                               ; preds = %80
  %83 = add nuw i32 %.val.i60, 1
  store i32 %83, ptr %77, align 4, !tbaa !8
  br label %lean_inc.exit32

84:                                               ; preds = %80
  %.not.i61 = icmp eq i32 %.val.i60, 0
  br i1 %.not.i61, label %lean_inc.exit32, label %85

85:                                               ; preds = %84
  tail call void @lean_inc_ref_cold(ptr noundef nonnull %77) #4
  br label %lean_inc.exit32

lean_inc.exit32:                                  ; preds = %85, %84, %82, %lean_dec.exit38
  br i1 %.not71, label %86, label %lean_dec.exit37

86:                                               ; preds = %lean_inc.exit32
  %87 = load i32, ptr %57, align 4, !tbaa !8
  %88 = icmp sgt i32 %87, 1
  br i1 %88, label %89, label %91, !prof !13

89:                                               ; preds = %86
  %90 = add nsw i32 %87, -1
  store i32 %90, ptr %57, align 4, !tbaa !8
  br label %lean_dec.exit37

91:                                               ; preds = %86
  %.not.i45 = icmp eq i32 %87, 0
  br i1 %.not.i45, label %lean_dec.exit37, label %92

92:                                               ; preds = %91
  tail call void @lean_dec_ref_cold(ptr noundef nonnull %57) #4
  br label %lean_dec.exit37

lean_dec.exit37:                                  ; preds = %92, %91, %89, %lean_inc.exit32
  %93 = tail call ptr @lean_apply_2(ptr noundef %77, ptr noundef nonnull inttoptr (i64 1 to ptr), ptr noundef nonnull inttoptr (i64 1 to ptr)) #4
  br label %129

94:                                               ; preds = %50
  br i1 %.not71, label %95, label %lean_inc.exit31

95:                                               ; preds = %94
  %.val.i63 = load i32, ptr %57, align 4, !tbaa !8
  %96 = icmp sgt i32 %.val.i63, 0
  br i1 %96, label %97, label %99, !prof !13

97:                                               ; preds = %95
  %98 = add nuw i32 %.val.i63, 1
  store i32 %98, ptr %57, align 4, !tbaa !8
  br label %lean_inc.exit31

99:                                               ; preds = %95
  %.not.i64 = icmp eq i32 %.val.i63, 0
  br i1 %.not.i64, label %lean_inc.exit31, label %100

100:                                              ; preds = %99
  tail call void @lean_inc_ref_cold(ptr noundef nonnull %57) #4
  br label %lean_inc.exit31

lean_inc.exit31:                                  ; preds = %100, %99, %97, %94
  %101 = ptrtoint ptr %0 to i64
  %102 = and i64 %101, 1
  %.not69 = icmp eq i64 %102, 0
  br i1 %.not69, label %103, label %lean_dec.exit36

103:                                              ; preds = %lean_inc.exit31
  %104 = load i32, ptr %0, align 4, !tbaa !8
  %105 = icmp sgt i32 %104, 1
  br i1 %105, label %106, label %108, !prof !13

106:                                              ; preds = %103
  %107 = add nsw i32 %104, -1
  store i32 %107, ptr %0, align 4, !tbaa !8
  br label %lean_dec.exit36

108:                                              ; preds = %103
  %.not.i47 = icmp eq i32 %104, 0
  br i1 %.not.i47, label %lean_dec.exit36, label %109

109:                                              ; preds = %108
  tail call void @lean_dec_ref_cold(ptr noundef nonnull %0) #4
  br label %lean_dec.exit36

lean_dec.exit36:                                  ; preds = %109, %108, %106, %lean_inc.exit31
  %110 = getelementptr inbounds nuw i8, ptr %57, i64 16
  %111 = load ptr, ptr %110, align 8, !tbaa !4
  %112 = ptrtoint ptr %111 to i64
  %113 = and i64 %112, 1
  %.not70 = icmp eq i64 %113, 0
  br i1 %.not70, label %114, label %lean_inc.exit

114:                                              ; preds = %lean_dec.exit36
  %.val.i66 = load i32, ptr %111, align 4, !tbaa !8
  %115 = icmp sgt i32 %.val.i66, 0
  br i1 %115, label %116, label %118, !prof !13

116:                                              ; preds = %114
  %117 = add nuw i32 %.val.i66, 1
  store i32 %117, ptr %111, align 4, !tbaa !8
  br label %lean_inc.exit

118:                                              ; preds = %114
  %.not.i67 = icmp eq i32 %.val.i66, 0
  br i1 %.not.i67, label %lean_inc.exit, label %119

119:                                              ; preds = %118
  tail call void @lean_inc_ref_cold(ptr noundef nonnull %111) #4
  br label %lean_inc.exit

lean_inc.exit:                                    ; preds = %119, %118, %116, %lean_dec.exit36
  br i1 %.not71, label %120, label %lean_dec.exit

120:                                              ; preds = %lean_inc.exit
  %121 = load i32, ptr %57, align 4, !tbaa !8
  %122 = icmp sgt i32 %121, 1
  br i1 %122, label %123, label %125, !prof !13

123:                                              ; preds = %120
  %124 = add nsw i32 %121, -1
  store i32 %124, ptr %57, align 4, !tbaa !8
  br label %lean_dec.exit

125:                                              ; preds = %120
  %.not.i49 = icmp eq i32 %121, 0
  br i1 %.not.i49, label %lean_dec.exit, label %126

126:                                              ; preds = %125
  tail call void @lean_dec_ref_cold(ptr noundef nonnull %57) #4
  br label %lean_dec.exit

lean_dec.exit:                                    ; preds = %126, %125, %123, %lean_inc.exit
  %127 = load ptr, ptr @l_Lean_Compiler_LCNF_anyFVarM_go___rarg___lambda__2___closed__1, align 8, !tbaa !4
  %128 = tail call ptr @lean_apply_2(ptr noundef %111, ptr noundef nonnull inttoptr (i64 1 to ptr), ptr noundef %127) #4
  br label %129

129:                                              ; preds = %lean_dec.exit37, %lean_dec.exit, %lean_dec.exit39
  %.0 = phi ptr [ %49, %lean_dec.exit39 ], [ %93, %lean_dec.exit37 ], [ %128, %lean_dec.exit ]
  ret ptr %.0
}